; Function Attrs: mustprogress uwtable
define range(i32 0, 2) i32 @ImfHeaderV2iAttribute(ptr noundef nonnull %0, ptr noundef %1, ptr noundef writeonly captures(none) %2, ptr noundef writeonly captures(none) %3) local_unnamed_addr #8 personality ptr @__gxx_personality_v0 {
  %5 = invoke noundef nonnull align 8 dereferenceable(8) ptr @_ZNK7Imf_3_46HeaderixEPKc(ptr noundef nonnull align 8 dereferenceable(49) %0, ptr noundef %1)
          to label %.noexc unwind label %17

.noexc:                                           ; preds = %4
  %6 = tail call ptr @__dynamic_cast(ptr nonnull %5, ptr nonnull @_ZTIN7Imf_3_49AttributeE, ptr nonnull @_ZTIN7Imf_3_414TypedAttributeIN9Imath_3_24Vec2IiEEEE, i64 0) #24
  %7 = icmp eq ptr %6, null
  br i1 %7, label %8, label %_ZNK7Imf_3_46Header14typedAttributeINS_14TypedAttributeIN9Imath_3_24Vec2IiEEEEEERKT_PKc.exit

8:                                                ; preds = %.noexc
  %9 = tail call ptr @__cxa_allocate_exception(i64 72) #24
  invoke void @_ZN7Iex_3_47TypeExcC1EPKc(ptr noundef nonnull align 8 dereferenceable(72) %9, ptr noundef nonnull @.str)
          to label %10 unwind label %11

10:                                               ; preds = %8
  invoke void @__cxa_throw(ptr nonnull %9, ptr nonnull @_ZTIN7Iex_3_47TypeExcE, ptr nonnull @_ZN7Iex_3_47TypeExcD1Ev) #26
          to label %.noexc11 unwind label %17

.noexc11:                                         ; preds = %10
  unreachable

11:                                               ; preds = %8
  %12 = landingpad { ptr, i32 }
          cleanup
          catch ptr @_ZTISt9exception
  tail call void @__cxa_free_exception(ptr nonnull %9) #24
  br label %.body

_ZNK7Imf_3_46Header14typedAttributeINS_14TypedAttributeIN9Imath_3_24Vec2IiEEEEEERKT_PKc.exit: ; preds = %.noexc
  %13 = getelementptr inbounds nuw i8, ptr %6, i64 8
  %14 = load i32, ptr %13, align 4, !tbaa !24
  store i32 %14, ptr %2, align 4, !tbaa !28
  %15 = getelementptr inbounds nuw i8, ptr %6, i64 12
  %16 = load i32, ptr %15, align 4, !tbaa !27
  store i32 %16, ptr %3, align 4, !tbaa !28
  br label %30

17:                                               ; preds = %10, %4
  %18 = landingpad { ptr, i32 }
          cleanup
          catch ptr @_ZTISt9exception
  br label %.body

.body:                                            ; preds = %11, %17
  %eh.lpad-body = phi { ptr, i32 } [ %18, %17 ], [ %12, %11 ]
  %19 = extractvalue { ptr, i32 } %eh.lpad-body, 1
  %20 = tail call i32 @llvm.eh.typeid.for.p0(ptr nonnull @_ZTISt9exception) #24
  %21 = icmp eq i32 %19, %20
  br i1 %21, label %22, label %31

22:                                               ; preds = %.body
  %23 = extractvalue { ptr, i32 } %eh.lpad-body, 0
  %24 = tail call ptr @__cxa_begin_catch(ptr %23) #24
  %25 = load ptr, ptr %24, align 8, !tbaa !22
  %26 = getelementptr inbounds nuw i8, ptr %25, i64 16
  %27 = load ptr, ptr %26, align 8
  %28 = tail call noundef ptr %27(ptr noundef nonnull align 8 dereferenceable(8) %24) #24
  %29 = tail call ptr @strncpy(ptr noundef nonnull dereferenceable(1) @_ZN12_GLOBAL__N_112errorMessageE, ptr noundef nonnull dereferenceable(1) %28, i64 noundef 1023) #24
  store i8 0, ptr getelementptr inbounds nuw (i8, ptr @_ZN12_GLOBAL__N_112errorMessageE, i64 1023), align 1, !tbaa !15
  tail call void @__cxa_end_catch()
  br label %30

30:                                               ; preds = %22, %_ZNK7Imf_3_46Header14typedAttributeINS_14TypedAttributeIN9Imath_3_24Vec2IiEEEEEERKT_PKc.exit
  %.0 = phi i32 [ 1, %_ZNK7Imf_3_46Header14typedAttributeINS_14TypedAttributeIN9Imath_3_24Vec2IiEEEEEERKT_PKc.exit ], [ 0, %22 ]
  ret i32 %.0

31:                                               ; preds = %.body
  resume { ptr, i32 } %eh.lpad-body
}